; Function Attrs: mustprogress uwtable
define dso_local noundef zeroext i1 @_ZN12cmFindCommon24ComputeIfDebugModeWantedERKNSt7__cxx1112basic_stringIcSt11char_traitsIcESaIcEEE(ptr noundef nonnull readonly align 8 captures(none) dereferenceable(384) %0, ptr noundef nonnull align 8 dereferenceable(32) %1) local_unnamed_addr #5 align 2 {
  %3 = tail call noundef zeroext i1 @_ZN12cmFindCommon24ComputeIfDebugModeWantedEv(ptr noundef nonnull align 8 dereferenceable(384) %0)
  br i1 %3, label %9, label %4

4:                                                ; preds = %2
  %5 = getelementptr inbounds nuw i8, ptr %0, i64 368
  %6 = load ptr, ptr %5, align 8, !tbaa !68
  %7 = tail call noundef ptr @_ZNK10cmMakefile16GetCMakeInstanceEv(ptr noundef nonnull align 8 dereferenceable(2880) %6)
  %8 = tail call noundef zeroext i1 @_ZNK5cmake18GetDebugFindOutputERKNSt7__cxx1112basic_stringIcSt11char_traitsIcESaIcEEE(ptr noundef nonnull align 8 dereferenceable(2312) %7, ptr noundef nonnull align 8 dereferenceable(32) %1)
  br label %9

9:                                                ; preds = %4, %2
  %10 = phi i1 [ true, %2 ], [ %8, %4 ]
  ret i1 %10
}